target datalayout = "e-m:e-p270:32:32-p271:32:32-p272:64:64-i64:64-i128:128-f80:128-n8:16:32:64-S128"
target triple = "x86_64-pc-linux-gnu"

@config_reject_shallow = internal global i32 -1, align 4
@config_filter_submodules = internal global i32 -1, align 4
@remote_name = internal global ptr null, align 8
@.str.76 = private unnamed_addr constant [24 x i8] c"clone.defaultremotename\00", align 1
@.str.77 = private unnamed_addr constant [20 x i8] c"clone.rejectshallow\00", align 1
@.str.78 = private unnamed_addr constant [23 x i8] c"clone.filtersubmodules\00", align 1

; Function Attrs: inlinehint nounwind uwtable
define internal i32 @const_error() #4 {
  ret i32 -1
}

; Function Attrs: nounwind uwtable
define internal i32 @git_clone_config(ptr noundef %0, ptr noundef %1, ptr noundef %2, ptr noundef %3) #0 {
  %5 = alloca i32, align 4
  %6 = alloca ptr, align 8
  %7 = alloca ptr, align 8
  %8 = alloca ptr, align 8
  %9 = alloca ptr, align 8
  store ptr %0, ptr %6, align 8, !tbaa !11
  store ptr %1, ptr %7, align 8, !tbaa !11
  store ptr %2, ptr %8, align 8, !tbaa !81
  store ptr %3, ptr %9, align 8, !tbaa !80
  %10 = load ptr, ptr %6, align 8, !tbaa !11
  %11 = call i32 @strcmp(ptr noundef %10, ptr noundef @.str.76) #15
  %12 = icmp ne i32 %11, 0
  br i1 %12, label %24, label %13

13:                                               ; preds = %4
  %14 = load ptr, ptr %7, align 8, !tbaa !11
  %15 = icmp ne ptr %14, null
  br i1 %15, label %20, label %16

16:                                               ; preds = %13
  %17 = load ptr, ptr %6, align 8, !tbaa !11
  %18 = call i32 @config_error_nonbool(ptr noundef %17)
  %19 = call i32 @const_error()
  store i32 %19, ptr %5, align 4
  br label %46

20:                                               ; preds = %13
  %21 = load ptr, ptr @remote_name, align 8, !tbaa !11
  call void @free(ptr noundef %21) #13
  %22 = load ptr, ptr %7, align 8, !tbaa !11
  %23 = call ptr @xstrdup(ptr noundef %22)
  store ptr %23, ptr @remote_name, align 8, !tbaa !11
  br label %24

24:                                               ; preds = %20, %4
  %25 = load ptr, ptr %6, align 8, !tbaa !11
  %26 = call i32 @strcmp(ptr noundef %25, ptr noundef @.str.77) #15
  %27 = icmp ne i32 %26, 0
  br i1 %27, label %32, label %28

28:                                               ; preds = %24
  %29 = load ptr, ptr %6, align 8, !tbaa !11
  %30 = load ptr, ptr %7, align 8, !tbaa !11
  %31 = call i32 @git_config_bool(ptr noundef %29, ptr noundef %30)
  store i32 %31, ptr @config_reject_shallow, align 4, !tbaa !4
  br label %32

32:                                               ; preds = %28, %24
  %33 = load ptr, ptr %6, align 8, !tbaa !11
  %34 = call i32 @strcmp(ptr noundef %33, ptr noundef @.str.78) #15
  %35 = icmp ne i32 %34, 0
  br i1 %35, label %40, label %36

36:                                               ; preds = %32
  %37 = load ptr, ptr %6, align 8, !tbaa !11
  %38 = load ptr, ptr %7, align 8, !tbaa !11
  %39 = call i32 @git_config_bool(ptr noundef %37, ptr noundef %38)
  store i32 %39, ptr @config_filter_submodules, align 4, !tbaa !4
  br label %40

40:                                               ; preds = %36, %32
  %41 = load ptr, ptr %6, align 8, !tbaa !11
  %42 = load ptr, ptr %7, align 8, !tbaa !11
  %43 = load ptr, ptr %8, align 8, !tbaa !81
  %44 = load ptr, ptr %9, align 8, !tbaa !80
  %45 = call i32 @git_default_config(ptr noundef %41, ptr noundef %42, ptr noundef %43, ptr noundef %44)
  store i32 %45, ptr %5, align 4
  br label %46

46:                                               ; preds = %40, %16
  %47 = load i32, ptr %5, align 4
  ret i32 %47
}