; Function Attrs: nounwind uwtable
define internal i32 @git_clone_config(ptr noundef %0, ptr noundef %1, ptr noundef %2, ptr noundef %3) #0 {
  %5 = tail call i32 @strcmp(ptr noundef nonnull dereferenceable(1) %0, ptr noundef nonnull dereferenceable(24) @.str.76) #22
  %.not = icmp eq i32 %5, 0
  br i1 %.not, label %6, label %12

6:                                                ; preds = %4
  %.not15 = icmp eq ptr %1, null
  br i1 %.not15, label %7, label %9

7:                                                ; preds = %6
  %8 = tail call i32 @config_error_nonbool(ptr noundef nonnull %0) #20
  br label %22

9:                                                ; preds = %6
  %10 = load ptr, ptr @remote_name, align 8, !tbaa !11
  tail call void @free(ptr noundef %10) #20
  %11 = tail call ptr @xstrdup(ptr noundef nonnull %1) #20
  store ptr %11, ptr @remote_name, align 8, !tbaa !11
  br label %12

12:                                               ; preds = %9, %4
  %13 = tail call i32 @strcmp(ptr noundef nonnull dereferenceable(1) %0, ptr noundef nonnull dereferenceable(20) @.str.77) #22
  %.not16 = icmp eq i32 %13, 0
  br i1 %.not16, label %14, label %16

14:                                               ; preds = %12
  %15 = tail call i32 @git_config_bool(ptr noundef nonnull %0, ptr noundef %1) #20
  store i32 %15, ptr @config_reject_shallow, align 4, !tbaa !4
  br label %16

16:                                               ; preds = %14, %12
  %17 = tail call i32 @strcmp(ptr noundef nonnull dereferenceable(1) %0, ptr noundef nonnull dereferenceable(23) @.str.78) #22
  %.not17 = icmp eq i32 %17, 0
  br i1 %.not17, label %18, label %20

18:                                               ; preds = %16
  %19 = tail call i32 @git_config_bool(ptr noundef nonnull %0, ptr noundef %1) #20
  store i32 %19, ptr @config_filter_submodules, align 4, !tbaa !4
  br label %20

20:                                               ; preds = %18, %16
  %21 = tail call i32 @git_default_config(ptr noundef nonnull %0, ptr noundef %1, ptr noundef %2, ptr noundef %3) #20
  br label %22

22:                                               ; preds = %20, %7
  %.0 = phi i32 [ %21, %20 ], [ -1, %7 ]
  ret i32 %.0
}